target datalayout = "e-m:e-p270:32:32-p271:32:32-p272:64:64-i64:64-i128:128-f80:128-n8:16:32:64-S128"
target triple = "x86_64-pc-linux-gnu"

%struct._funnel_menu_t = type { ptr, i32, ptr, ptr, ptr, i8, ptr }
%struct._funnel_packet_menu_t = type { ptr, ptr, ptr, ptr, i8, ptr }

@registered_menus = internal global ptr null, align 8
@removed_menus = internal global ptr null, align 8
@registered_packet_menus = internal global ptr null, align 8
@packet_menus_modified = internal global i8 0, align 1

; Function Attrs: null_pointer_is_valid sspstrong uwtable
define internal void @funnel_clear_packet_menu(ptr noundef %0) #1 {
  %2 = alloca ptr, align 8
  %3 = alloca ptr, align 8
  store ptr %0, ptr %2, align 8
  call void @llvm.lifetime.start.p0(i64 8, ptr %3) #8
  br label %4

4:                                                ; preds = %29, %1
  %5 = load ptr, ptr %2, align 8
  %6 = load ptr, ptr %5, align 8
  %7 = icmp ne ptr %6, null
  br i1 %7, label %8, label %31

8:                                                ; preds = %4
  %9 = load ptr, ptr %2, align 8
  %10 = load ptr, ptr %9, align 8
  store ptr %10, ptr %3, align 8
  %11 = load ptr, ptr %3, align 8
  %12 = getelementptr inbounds nuw %struct._funnel_packet_menu_t, ptr %11, i32 0, i32 5
  %13 = load ptr, ptr %12, align 8
  %14 = load ptr, ptr %2, align 8
  store ptr %13, ptr %14, align 8
  %15 = load ptr, ptr %3, align 8
  %16 = getelementptr inbounds nuw %struct._funnel_packet_menu_t, ptr %15, i32 0, i32 0
  %17 = load ptr, ptr %16, align 8
  call void @g_free(ptr noundef %17)
  %18 = load ptr, ptr %3, align 8
  %19 = getelementptr inbounds nuw %struct._funnel_packet_menu_t, ptr %18, i32 0, i32 1
  %20 = load ptr, ptr %19, align 8
  call void @g_free(ptr noundef %20)
  %21 = load ptr, ptr %3, align 8
  %22 = getelementptr inbounds nuw %struct._funnel_packet_menu_t, ptr %21, i32 0, i32 3
  %23 = load ptr, ptr %22, align 8
  %24 = icmp ne ptr %23, null
  br i1 %24, label %25, label %29

25:                                               ; preds = %8
  %26 = load ptr, ptr %3, align 8
  %27 = getelementptr inbounds nuw %struct._funnel_packet_menu_t, ptr %26, i32 0, i32 3
  %28 = load ptr, ptr %27, align 8
  call void @g_free(ptr noundef %28)
  br label %29

29:                                               ; preds = %25, %8
  %30 = load ptr, ptr %3, align 8
  call void @g_free(ptr noundef %30)
  br label %4, !llvm.loop !11

31:                                               ; preds = %4
  %32 = load ptr, ptr %2, align 8
  store ptr null, ptr %32, align 8
  call void @llvm.lifetime.end.p0(i64 8, ptr %3) #8
  ret void
}

; Function Attrs: nounwind null_pointer_is_valid sspstrong uwtable
define internal void @funnel_insert_menu(ptr noundef %0, ptr noundef %1) #0 {
  %3 = alloca ptr, align 8
  %4 = alloca ptr, align 8
  %5 = alloca ptr, align 8
  store ptr %0, ptr %3, align 8
  store ptr %1, ptr %4, align 8
  %6 = load ptr, ptr %3, align 8
  %7 = load ptr, ptr %6, align 8
  %8 = icmp ne ptr %7, null
  br i1 %8, label %12, label %9

9:                                                ; preds = %2
  %10 = load ptr, ptr %4, align 8
  %11 = load ptr, ptr %3, align 8
  store ptr %10, ptr %11, align 8
  br label %29

12:                                               ; preds = %2
  call void @llvm.lifetime.start.p0(i64 8, ptr %5) #8
  %13 = load ptr, ptr %3, align 8
  %14 = load ptr, ptr %13, align 8
  store ptr %14, ptr %5, align 8
  br label %15

15:                                               ; preds = %21, %12
  %16 = load ptr, ptr %5, align 8
  %17 = getelementptr inbounds nuw %struct._funnel_menu_t, ptr %16, i32 0, i32 6
  %18 = load ptr, ptr %17, align 8
  %19 = icmp ne ptr %18, null
  br i1 %19, label %20, label %25

20:                                               ; preds = %15
  br label %21

21:                                               ; preds = %20
  %22 = load ptr, ptr %5, align 8
  %23 = getelementptr inbounds nuw %struct._funnel_menu_t, ptr %22, i32 0, i32 6
  %24 = load ptr, ptr %23, align 8
  store ptr %24, ptr %5, align 8
  br label %15, !llvm.loop !8

25:                                               ; preds = %15
  %26 = load ptr, ptr %4, align 8
  %27 = load ptr, ptr %5, align 8
  %28 = getelementptr inbounds nuw %struct._funnel_menu_t, ptr %27, i32 0, i32 6
  store ptr %26, ptr %28, align 8
  call void @llvm.lifetime.end.p0(i64 8, ptr %5) #8
  br label %29

29:                                               ; preds = %25, %9
  ret void
}

; Function Attrs: null_pointer_is_valid sspstrong uwtable
define internal void @funnel_remove_menu(ptr noundef %0, ptr noundef %1) #1 {
  %3 = alloca ptr, align 8
  %4 = alloca ptr, align 8
  %5 = alloca ptr, align 8
  %6 = alloca ptr, align 8
  store ptr %0, ptr %3, align 8
  store ptr %1, ptr %4, align 8
  call void @llvm.lifetime.start.p0(i64 8, ptr %5) #8
  %7 = load ptr, ptr %3, align 8
  %8 = load ptr, ptr %7, align 8
  store ptr %8, ptr %5, align 8
  call void @llvm.lifetime.start.p0(i64 8, ptr %6) #8
  store ptr null, ptr %6, align 8
  br label %9

9:                                                ; preds = %66, %2
  %10 = load ptr, ptr %5, align 8
  %11 = icmp ne ptr %10, null
  br i1 %11, label %12, label %67

12:                                               ; preds = %9
  %13 = load ptr, ptr %5, align 8
  %14 = getelementptr inbounds nuw %struct._funnel_menu_t, ptr %13, i32 0, i32 2
  %15 = load ptr, ptr %14, align 8
  %16 = load ptr, ptr %4, align 8
  %17 = getelementptr inbounds nuw %struct._funnel_menu_t, ptr %16, i32 0, i32 2
  %18 = load ptr, ptr %17, align 8
  %19 = icmp eq ptr %15, %18
  br i1 %19, label %20, label %61

20:                                               ; preds = %12
  %21 = load ptr, ptr %6, align 8
  %22 = icmp ne ptr %21, null
  br i1 %22, label %23, label %29

23:                                               ; preds = %20
  %24 = load ptr, ptr %5, align 8
  %25 = getelementptr inbounds nuw %struct._funnel_menu_t, ptr %24, i32 0, i32 6
  %26 = load ptr, ptr %25, align 8
  %27 = load ptr, ptr %6, align 8
  %28 = getelementptr inbounds nuw %struct._funnel_menu_t, ptr %27, i32 0, i32 6
  store ptr %26, ptr %28, align 8
  br label %34

29:                                               ; preds = %20
  %30 = load ptr, ptr %5, align 8
  %31 = getelementptr inbounds nuw %struct._funnel_menu_t, ptr %30, i32 0, i32 6
  %32 = load ptr, ptr %31, align 8
  %33 = load ptr, ptr %3, align 8
  store ptr %32, ptr %33, align 8
  br label %34

34:                                               ; preds = %29, %23
  %35 = load ptr, ptr %5, align 8
  %36 = getelementptr inbounds nuw %struct._funnel_menu_t, ptr %35, i32 0, i32 0
  %37 = load ptr, ptr %36, align 8
  call void @g_free(ptr noundef %37)
  %38 = load ptr, ptr %5, align 8
  %39 = getelementptr inbounds nuw %struct._funnel_menu_t, ptr %38, i32 0, i32 4
  %40 = load ptr, ptr %39, align 8
  %41 = icmp ne ptr %40, null
  br i1 %41, label %42, label %49

42:                                               ; preds = %34
  %43 = load ptr, ptr %5, align 8
  %44 = getelementptr inbounds nuw %struct._funnel_menu_t, ptr %43, i32 0, i32 4
  %45 = load ptr, ptr %44, align 8
  %46 = load ptr, ptr %5, align 8
  %47 = getelementptr inbounds nuw %struct._funnel_menu_t, ptr %46, i32 0, i32 3
  %48 = load ptr, ptr %47, align 8
  call void %45(ptr noundef %48)
  br label %49

49:                                               ; preds = %42, %34
  %50 = load ptr, ptr %5, align 8
  call void @g_free(ptr noundef %50)
  %51 = load ptr, ptr %6, align 8
  %52 = icmp ne ptr %51, null
  br i1 %52, label %53, label %57

53:                                               ; preds = %49
  %54 = load ptr, ptr %6, align 8
  %55 = getelementptr inbounds nuw %struct._funnel_menu_t, ptr %54, i32 0, i32 6
  %56 = load ptr, ptr %55, align 8
  store ptr %56, ptr %5, align 8
  br label %60

57:                                               ; preds = %49
  %58 = load ptr, ptr %3, align 8
  %59 = load ptr, ptr %58, align 8
  store ptr %59, ptr %5, align 8
  br label %60

60:                                               ; preds = %57, %53
  br label %66

61:                                               ; preds = %12
  %62 = load ptr, ptr %5, align 8
  store ptr %62, ptr %6, align 8
  %63 = load ptr, ptr %5, align 8
  %64 = getelementptr inbounds nuw %struct._funnel_menu_t, ptr %63, i32 0, i32 6
  %65 = load ptr, ptr %64, align 8
  store ptr %65, ptr %5, align 8
  br label %66

66:                                               ; preds = %61, %60
  br label %9, !llvm.loop !10

67:                                               ; preds = %9
  call void @llvm.lifetime.end.p0(i64 8, ptr %6) #8
  call void @llvm.lifetime.end.p0(i64 8, ptr %5) #8
  ret void
}

; Function Attrs: null_pointer_is_valid sspstrong uwtable
define hidden void @funnel_deregister_menus(ptr noundef %0) #1 {
  %2 = alloca ptr, align 8
  %3 = alloca ptr, align 8
  %4 = alloca i64, align 8
  %5 = alloca i64, align 8
  %6 = alloca ptr, align 8
  %7 = alloca ptr, align 8
  store ptr %0, ptr %2, align 8
  call void @llvm.lifetime.start.p0(i64 8, ptr %3) #8
  call void @llvm.lifetime.start.p0(i64 8, ptr %4) #8
  store i64 1, ptr %4, align 8
  call void @llvm.lifetime.start.p0(i64 8, ptr %5) #8
  store i64 56, ptr %5, align 8
  call void @llvm.lifetime.start.p0(i64 8, ptr %6) #8
  %8 = load i64, ptr %5, align 8
  %9 = icmp eq i64 %8, 1
  br i1 %9, label %10, label %13

10:                                               ; preds = %1
  %11 = load i64, ptr %4, align 8
  %12 = call noalias ptr @g_malloc0(i64 noundef %11) #9
  store ptr %12, ptr %6, align 8
  br label %34

13:                                               ; preds = %1
  %14 = load i64, ptr %4, align 8
  %15 = call i1 @llvm.is.constant.i64(i64 %14)
  br i1 %15, label %16, label %29

16:                                               ; preds = %13
  %17 = load i64, ptr %5, align 8
  %18 = icmp eq i64 %17, 0
  br i1 %18, label %24, label %19

19:                                               ; preds = %16
  %20 = load i64, ptr %4, align 8
  %21 = load i64, ptr %5, align 8
  %22 = udiv i64 -1, %21
  %23 = icmp ule i64 %20, %22
  br i1 %23, label %24, label %29

24:                                               ; preds = %19, %16
  %25 = load i64, ptr %4, align 8
  %26 = load i64, ptr %5, align 8
  %27 = mul i64 %25, %26
  %28 = call noalias ptr @g_malloc0(i64 noundef %27) #9
  store ptr %28, ptr %6, align 8
  br label %33

29:                                               ; preds = %19, %13
  %30 = load i64, ptr %4, align 8
  %31 = load i64, ptr %5, align 8
  %32 = call noalias ptr @g_malloc0_n(i64 noundef %30, i64 noundef %31) #10
  store ptr %32, ptr %6, align 8
  br label %33

33:                                               ; preds = %29, %24
  br label %34

34:                                               ; preds = %33, %10
  %35 = load ptr, ptr %6, align 8
  store ptr %35, ptr %7, align 8
  call void @llvm.lifetime.end.p0(i64 8, ptr %6) #8
  call void @llvm.lifetime.end.p0(i64 8, ptr %5) #8
  call void @llvm.lifetime.end.p0(i64 8, ptr %4) #8
  %36 = load ptr, ptr %7, align 8
  store ptr %36, ptr %3, align 8
  %37 = load ptr, ptr %2, align 8
  %38 = load ptr, ptr %3, align 8
  %39 = getelementptr inbounds nuw %struct._funnel_menu_t, ptr %38, i32 0, i32 2
  store ptr %37, ptr %39, align 8
  %40 = load ptr, ptr %3, align 8
  call void @funnel_remove_menu(ptr noundef @registered_menus, ptr noundef %40)
  %41 = load ptr, ptr %3, align 8
  call void @funnel_insert_menu(ptr noundef @removed_menus, ptr noundef %41)
  call void @funnel_clear_packet_menu(ptr noundef @registered_packet_menus)
  store i8 1, ptr @packet_menus_modified, align 1
  call void @llvm.lifetime.end.p0(i64 8, ptr %3) #8
  ret void
}