; Function Attrs: null_pointer_is_valid sspstrong uwtable
define hidden void @funnel_deregister_menus(ptr noundef %0) local_unnamed_addr #2 {
  %2 = tail call noalias dereferenceable_or_null(56) ptr @g_malloc0(i64 noundef 56) #6
  %3 = getelementptr inbounds nuw i8, ptr %2, i64 16
  store ptr %0, ptr %3, align 8
  %.0191.i = load ptr, ptr @registered_menus, align 8
  %.not2.i = icmp eq ptr %.0191.i, null
  br i1 %.not2.i, label %funnel_remove_menu.exit, label %.lr.ph.i

.lr.ph.i:                                         ; preds = %1, %25
  %.0194.i = phi ptr [ %.019.i, %25 ], [ %.0191.i, %1 ]
  %.03.i = phi ptr [ %.1.i, %25 ], [ null, %1 ]
  %4 = getelementptr inbounds nuw i8, ptr %.0194.i, i64 16
  %5 = load ptr, ptr %4, align 8
  %6 = load ptr, ptr %3, align 8
  %7 = icmp eq ptr %5, %6
  br i1 %7, label %8, label %23

8:                                                ; preds = %.lr.ph.i
  %.not22.i = icmp eq ptr %.03.i, null
  %9 = getelementptr inbounds nuw i8, ptr %.0194.i, i64 48
  %10 = load ptr, ptr %9, align 8
  br i1 %.not22.i, label %13, label %11

11:                                               ; preds = %8
  %12 = getelementptr inbounds nuw i8, ptr %.03.i, i64 48
  store ptr %10, ptr %12, align 8
  br label %14

13:                                               ; preds = %8
  store ptr %10, ptr @registered_menus, align 8
  br label %14

14:                                               ; preds = %13, %11
  %15 = load ptr, ptr %.0194.i, align 8
  tail call void @g_free(ptr noundef %15)
  %16 = getelementptr inbounds nuw i8, ptr %.0194.i, i64 32
  %17 = load ptr, ptr %16, align 8
  %.not23.i = icmp eq ptr %17, null
  br i1 %.not23.i, label %21, label %18

18:                                               ; preds = %14
  %19 = getelementptr inbounds nuw i8, ptr %.0194.i, i64 24
  %20 = load ptr, ptr %19, align 8
  tail call void %17(ptr noundef %20)
  br label %21

21:                                               ; preds = %18, %14
  tail call void @g_free(ptr noundef nonnull %.0194.i)
  %22 = getelementptr inbounds nuw i8, ptr %.03.i, i64 48
  %spec.select.i = select i1 %.not22.i, ptr @registered_menus, ptr %22
  br label %25

23:                                               ; preds = %.lr.ph.i
  %24 = getelementptr inbounds nuw i8, ptr %.0194.i, i64 48
  br label %25

25:                                               ; preds = %23, %21
  %.120.in.i = phi ptr [ %24, %23 ], [ %spec.select.i, %21 ]
  %.1.i = phi ptr [ %.0194.i, %23 ], [ %.03.i, %21 ]
  %.019.i = load ptr, ptr %.120.in.i, align 8
  %.not.i = icmp eq ptr %.019.i, null
  br i1 %.not.i, label %funnel_remove_menu.exit, label %.lr.ph.i, !llvm.loop !8

funnel_remove_menu.exit:                          ; preds = %25, %1
  %26 = load ptr, ptr @removed_menus, align 8
  %.not.i15 = icmp eq ptr %26, null
  br i1 %.not.i15, label %27, label %.preheader.i

27:                                               ; preds = %funnel_remove_menu.exit
  store ptr %2, ptr @removed_menus, align 8
  br label %funnel_insert_menu.exit

.preheader.i:                                     ; preds = %funnel_remove_menu.exit, %.preheader.i
  %.0.i = phi ptr [ %29, %.preheader.i ], [ %26, %funnel_remove_menu.exit ]
  %28 = getelementptr inbounds nuw i8, ptr %.0.i, i64 48
  %29 = load ptr, ptr %28, align 8
  %.not10.i = icmp eq ptr %29, null
  br i1 %.not10.i, label %30, label %.preheader.i, !llvm.loop !6

30:                                               ; preds = %.preheader.i
  %31 = getelementptr inbounds nuw i8, ptr %.0.i, i64 48
  store ptr %2, ptr %31, align 8
  br label %funnel_insert_menu.exit

funnel_insert_menu.exit:                          ; preds = %27, %30
  %32 = load ptr, ptr @registered_packet_menus, align 8
  %.not1.i = icmp eq ptr %32, null
  br i1 %.not1.i, label %funnel_clear_packet_menu.exit, label %.lr.ph.i16

.lr.ph.i16:                                       ; preds = %funnel_insert_menu.exit, %42
  %33 = phi ptr [ %43, %42 ], [ %32, %funnel_insert_menu.exit ]
  %34 = getelementptr inbounds nuw i8, ptr %33, i64 40
  %35 = load ptr, ptr %34, align 8
  store ptr %35, ptr @registered_packet_menus, align 8
  %36 = load ptr, ptr %33, align 8
  tail call void @g_free(ptr noundef %36)
  %37 = getelementptr inbounds nuw i8, ptr %33, i64 8
  %38 = load ptr, ptr %37, align 8
  tail call void @g_free(ptr noundef %38)
  %39 = getelementptr inbounds nuw i8, ptr %33, i64 24
  %40 = load ptr, ptr %39, align 8
  %.not11.i = icmp eq ptr %40, null
  br i1 %.not11.i, label %42, label %41

41:                                               ; preds = %.lr.ph.i16
  tail call void @g_free(ptr noundef nonnull %40)
  br label %42

42:                                               ; preds = %41, %.lr.ph.i16
  tail call void @g_free(ptr noundef nonnull %33)
  %43 = load ptr, ptr @registered_packet_menus, align 8
  %.not.i17 = icmp eq ptr %43, null
  br i1 %.not.i17, label %funnel_clear_packet_menu.exit, label %.lr.ph.i16, !llvm.loop !9

funnel_clear_packet_menu.exit:                    ; preds = %42, %funnel_insert_menu.exit
  store ptr null, ptr @registered_packet_menus, align 8
  store i1 true, ptr @packet_menus_modified, align 1
  ret void
}